target datalayout = "e-m:e-p270:32:32-p271:32:32-p272:64:64-i64:64-i128:128-f80:128-n8:16:32:64-S128"
target triple = "x86_64-pc-linux-gnu"

%struct.reassembly_table = type { ptr, ptr, ptr, ptr, ptr }
%struct.reassembly_table_functions = type { ptr, ptr, ptr, ptr, ptr, ptr }

@proto_register_uavcan.ett = internal global [5 x ptr] [ptr @ett_uavcan, ptr @ett_uavcan_can, ptr @ett_uavcan_message, ptr @ett_uavcan_fragment, ptr @ett_uavcan_fragments], align 16
@uavcan_reassembly_table = internal global %struct.reassembly_table zeroinitializer, align 8
@addresses_reassembly_table_functions = external constant %struct.reassembly_table_functions, align 8
@fragment_info_table = internal global ptr null, align 8
@.str.50 = private unnamed_addr constant [11 x i8] c"UAVCAN/CAN\00", align 1
@.str.51 = private unnamed_addr constant [11 x i8] c"uavcan_can\00", align 1
@proto_uavcan = internal global i32 0, align 4
@uavcan_handle = internal global ptr null, align 8
@.str.56 = private unnamed_addr constant [10 x i8] c"AT_UAVCAN\00", align 1
@.str.57 = private unnamed_addr constant [15 x i8] c"UAVCAN Address\00", align 1
@uavcan_address_type = internal global i32 -1, align 4

; Function Attrs: null_pointer_is_valid sspstrong uwtable
define hidden void @proto_register_uavcan() #0 {
  %1 = alloca ptr, align 8
  call void @reassembly_table_register(ptr noundef @uavcan_reassembly_table, ptr noundef @addresses_reassembly_table_functions)
  %2 = call ptr @wmem_epan_scope()
  %3 = call ptr @wmem_file_scope()
  %4 = call noalias ptr @wmem_tree_new_autoreset(ptr noundef %2, ptr noundef %3)
  store ptr %4, ptr @fragment_info_table, align 8
  call void @llvm.lifetime.start.p0(i64 8, ptr %1) #10
  %5 = call i32 @proto_register_protocol(ptr noundef @.str.50, ptr noundef @.str.50, ptr noundef @.str.51)
  store i32 %5, ptr @proto_uavcan, align 4
  %6 = load i32, ptr @proto_uavcan, align 4
  call void @proto_register_field_array(i32 noundef %6, ptr noundef @proto_register_uavcan.hf, i32 noundef 25)
  call void @proto_register_subtree_array(ptr noundef @proto_register_uavcan.ett, i32 noundef 5)
  %7 = load i32, ptr @proto_uavcan, align 4
  %8 = call ptr @register_dissector(ptr noundef @.str.51, ptr noundef @dissect_uavcan, i32 noundef %7)
  store ptr %8, ptr @uavcan_handle, align 8
  %9 = load i32, ptr @proto_uavcan, align 4
  %10 = call ptr @expert_register_protocol(i32 noundef %9)
  store ptr %10, ptr %1, align 8
  %11 = load ptr, ptr %1, align 8
  call void @expert_register_field_array(ptr noundef %11, ptr noundef @proto_register_uavcan.ei, i32 noundef 2)
  %12 = call i32 @address_type_dissector_register(ptr noundef @.str.56, ptr noundef @.str.57, ptr noundef @UAVCAN_addr_to_str, ptr noundef @UAVCAN_addr_str_len, ptr noundef null, ptr noundef @UAVCAN_col_filter_str, ptr noundef @UAVCAN_addr_len, ptr noundef null, ptr noundef null)
  store i32 %12, ptr @uavcan_address_type, align 4
  call void @llvm.lifetime.end.p0(i64 8, ptr %1) #10
  ret void
}