; Function Attrs: null_pointer_is_valid sspstrong uwtable
define hidden void @proto_register_uavcan() local_unnamed_addr #0 {
  tail call void @reassembly_table_register(ptr noundef nonnull @uavcan_reassembly_table, ptr noundef nonnull @addresses_reassembly_table_functions)
  %1 = tail call ptr @wmem_epan_scope()
  %2 = tail call ptr @wmem_file_scope()
  %3 = tail call noalias ptr @wmem_tree_new_autoreset(ptr noundef %1, ptr noundef %2)
  store ptr %3, ptr @fragment_info_table, align 8
  %4 = tail call i32 @proto_register_protocol(ptr noundef nonnull @.str.50, ptr noundef nonnull @.str.50, ptr noundef nonnull @.str.51)
  store i32 %4, ptr @proto_uavcan, align 4
  tail call void @proto_register_field_array(i32 noundef %4, ptr noundef nonnull @proto_register_uavcan.hf, i32 noundef 25)
  tail call void @proto_register_subtree_array(ptr noundef nonnull @proto_register_uavcan.ett, i32 noundef 5)
  %5 = load i32, ptr @proto_uavcan, align 4
  %6 = tail call ptr @register_dissector(ptr noundef nonnull @.str.51, ptr noundef nonnull @dissect_uavcan, i32 noundef %5)
  store ptr %6, ptr @uavcan_handle, align 8
  %7 = load i32, ptr @proto_uavcan, align 4
  %8 = tail call ptr @expert_register_protocol(i32 noundef %7)
  tail call void @expert_register_field_array(ptr noundef %8, ptr noundef nonnull @proto_register_uavcan.ei, i32 noundef 2)
  %9 = tail call i32 @address_type_dissector_register(ptr noundef nonnull @.str.56, ptr noundef nonnull @.str.57, ptr noundef nonnull @UAVCAN_addr_to_str, ptr noundef nonnull @UAVCAN_addr_str_len, ptr noundef null, ptr noundef nonnull @UAVCAN_col_filter_str, ptr noundef nonnull @UAVCAN_addr_len, ptr noundef null, ptr noundef null)
  store i32 %9, ptr @uavcan_address_type, align 4
  ret void
}